target datalayout = "e-m:e-p270:32:32-p271:32:32-p272:64:64-i64:64-i128:128-f80:128-n8:16:32:64-S128"
target triple = "x86_64-pc-linux-gnu"

%struct.AVCodecContext = type { ptr, i32, i32, ptr, i32, i32, ptr, ptr, ptr, i64, i32, i32, ptr, i32, %struct.AVRational, %struct.AVRational, %struct.AVRational, i32, i32, i32, i32, i32, %struct.AVRational, i32, i32, i32, i32, i32, i32, i32, i32, i32, i32, i32, ptr, ptr, i32, float, float, float, float, float, float, float, float, float, i32, i32, i32, i32, i32, i32, i32, i32, i32, i32, i32, i32, ptr, ptr, ptr, i32, i32, i32, i32, i32, i32, i32, i32, i32, i32, %struct.AVChannelLayout, i32, i32, i32, i32, i32, i32, i32, i32, ptr, i32, i32, i32, float, float, i32, i32, i32, i32, i32, ptr, i64, i64, float, float, i32, i32, ptr, ptr, i32, i32, i32, i32, i32, ptr, ptr, ptr, ptr, i32, i32, [8 x i64], i32, i32, i32, i32, i32, i32, i32, ptr, ptr, i32, i32, i32, i32, i32, i32, i32, i32, i32, i32, ptr, ptr, i32, i32, ptr, ptr, ptr, ptr, i32, i32, i64, i32, i32, i64, ptr, i64, ptr, i32, ptr, i32 }
%struct.AVRational = type { i32, i32 }
%struct.AVChannelLayout = type { i32, i32, %union.anon.0, ptr }
%union.anon.0 = type { i64 }
%struct.MPADecodeContext = type { i32, i32, i32, i32, i32, i32, i32, i32, i32, i32, [1048 x i8], i32, i32, i32, %struct.GetBitContext, %struct.GetBitContext, [2 x [1024 x float]], [2 x i32], [8 x i8], [2 x [36 x [32 x float]]], [2 x [576 x float]], [2 x [2 x %struct.GranuleDef]], i32, i32, i32, ptr, %struct.MPADSPContext, ptr, ptr, i32 }
%struct.GetBitContext = type { ptr, ptr, i32, i32, i32 }
%struct.GranuleDef = type { i8, i32, i32, i32, i32, i8, i8, [3 x i32], [3 x i32], i8, i8, [3 x i32], i32, i32, i32, [40 x i8], [12 x i8], [576 x float] }
%struct.MPADSPContext = type { ptr, ptr, ptr, ptr, ptr, ptr }

; Function Attrs: nounwind uwtable
define internal void @mp_flush(ptr noundef %0) #1 {
  %2 = alloca ptr, align 8
  store ptr %0, ptr %2, align 8, !tbaa !29
  %3 = load ptr, ptr %2, align 8, !tbaa !29
  %4 = getelementptr inbounds nuw %struct.MPADecodeContext, ptr %3, i32 0, i32 16
  %5 = getelementptr inbounds [2 x [1024 x float]], ptr %4, i64 0, i64 0
  call void @llvm.memset.p0.i64(ptr align 16 %5, i8 0, i64 8192, i1 false)
  %6 = load ptr, ptr %2, align 8, !tbaa !29
  %7 = getelementptr inbounds nuw %struct.MPADecodeContext, ptr %6, i32 0, i32 20
  %8 = getelementptr inbounds [2 x [576 x float]], ptr %7, i64 0, i64 0
  call void @llvm.memset.p0.i64(ptr align 16 %8, i8 0, i64 4608, i1 false)
  %9 = load ptr, ptr %2, align 8, !tbaa !29
  %10 = getelementptr inbounds nuw %struct.MPADecodeContext, ptr %9, i32 0, i32 11
  store i32 0, ptr %10, align 16, !tbaa !115
  %11 = load ptr, ptr %2, align 8, !tbaa !29
  %12 = getelementptr inbounds nuw %struct.MPADecodeContext, ptr %11, i32 0, i32 23
  store i32 0, ptr %12, align 4, !tbaa !238
  ret void
}

; Function Attrs: nounwind uwtable
define internal void @flush(ptr noundef %0) #1 {
  %2 = alloca ptr, align 8
  store ptr %0, ptr %2, align 8, !tbaa !4
  %3 = load ptr, ptr %2, align 8, !tbaa !4
  %4 = getelementptr inbounds nuw %struct.AVCodecContext, ptr %3, i32 0, i32 6
  %5 = load ptr, ptr %4, align 8, !tbaa !9
  call void @mp_flush(ptr noundef %5)
  ret void
}